target datalayout = "e-m:e-p270:32:32-p271:32:32-p272:64:64-i64:64-i128:128-f80:128-n8:16:32:64-S128"
target triple = "x86_64-pc-linux-gnu"

%class.QFlags = type { i32 }
%class.AccordionFrame = type { %class.QFrame, i32, ptr }
%class.QFrame = type { %class.QWidget }
%class.QWidget = type { %class.QObject, %class.QPaintDevice.base, ptr }
%class.QObject = type { ptr, %class.QScopedPointer }
%class.QScopedPointer = type { ptr }
%class.QPaintDevice.base = type <{ ptr, i16 }>
%class.QVariant = type { %"struct.QVariant::Private" }
%"struct.QVariant::Private" = type { %union.anon, i64 }
%union.anon = type { ptr, [16 x i8] }
%class.QWidgetData = type { i64, i32, %class.QFlags, i32, %class.QRect, [4 x i8], %class.QPalette, %class.QFont, %class.QRect }
%class.QPalette = type <{ ptr, i32, [4 x i8] }>
%class.QFont = type <{ %class.QExplicitlySharedDataPointer, i32, [4 x i8] }>
%class.QExplicitlySharedDataPointer = type { ptr }
%class.QRect = type { i32, i32, i32, i32 }
%class.QObjectData = type { ptr, ptr, ptr, %class.QList, i32, i32, ptr, %class.QBindingStorage }
%class.QList = type { %struct.QArrayDataPointer.3 }
%struct.QArrayDataPointer.3 = type { ptr, ptr, i64 }
%class.QBindingStorage = type { ptr, ptr }

; Function Attrs: mustprogress nounwind null_pointer_is_valid sspstrong uwtable
define linkonce_odr noundef ptr @_ZNK14QScopedPointerI11QObjectData21QScopedPointerDeleterIS0_EEptEv(ptr noundef align 8 dereferenceable_or_null(8) %0) #8 comdat align 2 {
  %2 = alloca ptr, align 8
  store ptr %0, ptr %2, align 8
  %3 = load ptr, ptr %2, align 8
  %4 = getelementptr inbounds nuw %class.QScopedPointer, ptr %3, i32 0, i32 0
  %5 = load ptr, ptr %4, align 8
  ret ptr %5
}

; Function Attrs: inlinehint mustprogress nounwind null_pointer_is_valid sspstrong uwtable
define linkonce_odr noundef i32 @_ZNK5QRect6heightEv(ptr noundef align 4 dereferenceable_or_null(16) %0) #1 comdat align 2 {
  %2 = alloca ptr, align 8
  store ptr %0, ptr %2, align 8
  %3 = load ptr, ptr %2, align 8
  %4 = getelementptr inbounds nuw %class.QRect, ptr %3, i32 0, i32 3
  %5 = load i32, ptr %4, align 4
  %6 = getelementptr inbounds nuw %class.QRect, ptr %3, i32 0, i32 1
  %7 = load i32, ptr %6, align 4
  %8 = sub i32 %5, %7
  %9 = add i32 %8, 1
  ret i32 %9
}

; Function Attrs: inlinehint mustprogress nounwind null_pointer_is_valid sspstrong uwtable
define linkonce_odr noundef ptr @_ZNK7QObject6parentEv(ptr noundef align 8 dereferenceable_or_null(16) %0) #1 comdat align 2 {
  %2 = alloca ptr, align 8
  store ptr %0, ptr %2, align 8
  %3 = load ptr, ptr %2, align 8
  %4 = getelementptr inbounds nuw %class.QObject, ptr %3, i32 0, i32 1
  %5 = call noundef ptr @_ZNK14QScopedPointerI11QObjectData21QScopedPointerDeleterIS0_EEptEv(ptr noundef align 8 dereferenceable_or_null(8) %4) #10
  %6 = getelementptr inbounds nuw %class.QObjectData, ptr %5, i32 0, i32 2
  %7 = load ptr, ptr %6, align 8
  ret ptr %7
}

; Function Attrs: inlinehint mustprogress null_pointer_is_valid sspstrong uwtable
define linkonce_odr noundef zeroext i1 @_ZNK7QWidget13testAttributeEN2Qt15WidgetAttributeE(ptr noundef align 8 dereferenceable_or_null(40) %0, i32 noundef %1) #7 comdat align 2 {
  %3 = alloca i1, align 1
  %4 = alloca ptr, align 8
  %5 = alloca i32, align 4
  store ptr %0, ptr %4, align 8
  store i32 %1, ptr %5, align 4
  %6 = load ptr, ptr %4, align 8
  %7 = load i32, ptr %5, align 4
  %8 = icmp slt i32 %7, 32
  br i1 %8, label %9, label %18

9:                                                ; preds = %2
  %10 = getelementptr inbounds nuw %class.QWidget, ptr %6, i32 0, i32 2
  %11 = load ptr, ptr %10, align 8
  %12 = getelementptr inbounds nuw %class.QWidgetData, ptr %11, i32 0, i32 1
  %13 = load i32, ptr %12, align 8
  %14 = load i32, ptr %5, align 4
  %15 = shl i32 1, %14
  %16 = and i32 %13, %15
  %17 = icmp ne i32 %16, 0
  store i1 %17, ptr %3, align 1
  br label %21

18:                                               ; preds = %2
  %19 = load i32, ptr %5, align 4
  %20 = call noundef zeroext i1 @_ZNK7QWidget20testAttribute_helperEN2Qt15WidgetAttributeE(ptr noundef align 8 dereferenceable_or_null(40) %6, i32 noundef %19)
  store i1 %20, ptr %3, align 1
  br label %21

21:                                               ; preds = %18, %9
  %22 = load i1, ptr %3, align 1
  ret i1 %22
}

; Function Attrs: inlinehint mustprogress nounwind null_pointer_is_valid sspstrong uwtable
define linkonce_odr noundef i32 @_ZNK7QWidget6heightEv(ptr noundef align 8 dereferenceable_or_null(40) %0) #1 comdat align 2 {
  %2 = alloca ptr, align 8
  store ptr %0, ptr %2, align 8
  %3 = load ptr, ptr %2, align 8
  %4 = getelementptr inbounds nuw %class.QWidget, ptr %3, i32 0, i32 2
  %5 = load ptr, ptr %4, align 8
  %6 = getelementptr inbounds nuw %class.QWidgetData, ptr %5, i32 0, i32 4
  %7 = call noundef i32 @_ZNK5QRect6heightEv(ptr noundef align 4 dereferenceable_or_null(16) %6) #10
  ret i32 %7
}

; Function Attrs: inlinehint mustprogress null_pointer_is_valid sspstrong uwtable
define linkonce_odr noundef ptr @_ZNK7QWidget12parentWidgetEv(ptr noundef align 8 dereferenceable_or_null(40) %0) #7 comdat align 2 {
  %2 = alloca ptr, align 8
  store ptr %0, ptr %2, align 8
  %3 = load ptr, ptr %2, align 8
  %4 = call noundef ptr @_ZNK7QObject6parentEv(ptr noundef align 8 dereferenceable_or_null(16) %3)
  ret ptr %4
}

; Function Attrs: inlinehint mustprogress null_pointer_is_valid sspstrong uwtable
define linkonce_odr noundef zeroext i1 @_ZNK7QWidget9isVisibleEv(ptr noundef align 8 dereferenceable_or_null(40) %0) #7 comdat align 2 {
  %2 = alloca ptr, align 8
  store ptr %0, ptr %2, align 8
  %3 = load ptr, ptr %2, align 8
  %4 = call noundef zeroext i1 @_ZNK7QWidget13testAttributeEN2Qt15WidgetAttributeE(ptr noundef align 8 dereferenceable_or_null(40) %3, i32 noundef 15)
  ret i1 %4
}

; Function Attrs: mustprogress null_pointer_is_valid sspstrong uwtable
define void @_ZN14AccordionFrame12animatedShowEv(ptr noundef align 8 dereferenceable_or_null(56) %0) #0 align 2 personality ptr @__gxx_personality_v0 {
  %2 = alloca ptr, align 8
  %3 = alloca ptr, align 8
  %4 = alloca %class.QVariant, align 8
  %5 = alloca ptr, align 8
  %6 = alloca i32, align 4
  %7 = alloca %class.QVariant, align 8
  store ptr %0, ptr %2, align 8
  %8 = load ptr, ptr %2, align 8
  %9 = call noundef zeroext i1 @_ZNK7QWidget9isVisibleEv(ptr noundef align 8 dereferenceable_or_null(40) %8)
  br i1 %9, label %10, label %11

10:                                               ; preds = %1
  call void @_ZN7QWidget4showEv(ptr noundef align 8 dereferenceable_or_null(40) %8)
  br label %58

11:                                               ; preds = %1
  %12 = call zeroext i1 @display_is_remote()
  br i1 %12, label %57, label %13

13:                                               ; preds = %11
  call void @llvm.lifetime.start.p0(i64 8, ptr %3) #10
  %14 = call noundef ptr @_ZNK7QWidget12parentWidgetEv(ptr noundef align 8 dereferenceable_or_null(40) %8)
  store ptr %14, ptr %3, align 8
  %15 = load ptr, ptr %3, align 8
  %16 = icmp ne ptr %15, null
  br i1 %16, label %17, label %32

17:                                               ; preds = %13
  %18 = load ptr, ptr %3, align 8
  %19 = call noundef ptr @_ZNK7QWidget6layoutEv(ptr noundef align 8 dereferenceable_or_null(40) %18)
  %20 = icmp ne ptr %19, null
  br i1 %20, label %21, label %32

21:                                               ; preds = %17
  call void @_ZN7QWidget4showEv(ptr noundef align 8 dereferenceable_or_null(40) %8)
  %22 = load ptr, ptr %3, align 8
  %23 = call noundef ptr @_ZNK7QWidget6layoutEv(ptr noundef align 8 dereferenceable_or_null(40) %22)
  %24 = load ptr, ptr %23, align 8
  %25 = getelementptr inbounds ptr, ptr %24, i64 14
  %26 = load ptr, ptr %25, align 8
  call void %26(ptr noundef align 8 dereferenceable_or_null(28) %23)
  %27 = load ptr, ptr %3, align 8
  %28 = call noundef ptr @_ZNK7QWidget6layoutEv(ptr noundef align 8 dereferenceable_or_null(40) %27)
  %29 = call noundef zeroext i1 @_ZN7QLayout8activateEv(ptr noundef align 8 dereferenceable_or_null(28) %28)
  %30 = call noundef i32 @_ZNK7QWidget6heightEv(ptr noundef align 8 dereferenceable_or_null(40) %8)
  %31 = getelementptr inbounds nuw %class.AccordionFrame, ptr %8, i32 0, i32 1
  store i32 %30, ptr %31, align 8
  call void @_ZN7QWidget4hideEv(ptr noundef align 8 dereferenceable_or_null(40) %8)
  br label %32

32:                                               ; preds = %21, %17, %13
  %33 = getelementptr inbounds nuw %class.AccordionFrame, ptr %8, i32 0, i32 1
  %34 = load i32, ptr %33, align 8
  %35 = icmp sgt i32 %34, 0
  br i1 %35, label %36, label %55

36:                                               ; preds = %32
  %37 = getelementptr inbounds nuw %class.AccordionFrame, ptr %8, i32 0, i32 2
  %38 = load ptr, ptr %37, align 8
  call void @llvm.lifetime.start.p0(i64 32, ptr %4) #10
  call void @_ZN8QVariantC1Ei(ptr noundef align 8 dereferenceable_or_null(32) %4, i32 noundef 0)
  invoke void @_ZN17QVariantAnimation13setStartValueERK8QVariant(ptr noundef align 8 dereferenceable_or_null(16) %38, ptr noundef align 8 dereferenceable(32) %4)
          to label %39 unwind label %47

39:                                               ; preds = %36
  call void @_ZN8QVariantD1Ev(ptr noundef align 8 dereferenceable_or_null(32) %4) #10
  call void @llvm.lifetime.end.p0(i64 32, ptr %4) #10
  %40 = getelementptr inbounds nuw %class.AccordionFrame, ptr %8, i32 0, i32 2
  %41 = load ptr, ptr %40, align 8
  call void @llvm.lifetime.start.p0(i64 32, ptr %7) #10
  %42 = getelementptr inbounds nuw %class.AccordionFrame, ptr %8, i32 0, i32 1
  %43 = load i32, ptr %42, align 8
  call void @_ZN8QVariantC1Ei(ptr noundef align 8 dereferenceable_or_null(32) %7, i32 noundef %43)
  invoke void @_ZN17QVariantAnimation11setEndValueERK8QVariant(ptr noundef align 8 dereferenceable_or_null(16) %41, ptr noundef align 8 dereferenceable(32) %7)
          to label %44 unwind label %51

44:                                               ; preds = %39
  call void @_ZN8QVariantD1Ev(ptr noundef align 8 dereferenceable_or_null(32) %7) #10
  call void @llvm.lifetime.end.p0(i64 32, ptr %7) #10
  %45 = getelementptr inbounds nuw %class.AccordionFrame, ptr %8, i32 0, i32 2
  %46 = load ptr, ptr %45, align 8
  call void @_ZN18QAbstractAnimation5startENS_14DeletionPolicyE(ptr noundef align 8 dereferenceable_or_null(16) %46, i32 noundef 0)
  br label %55

47:                                               ; preds = %36
  %48 = landingpad { ptr, i32 }
          cleanup
  %49 = extractvalue { ptr, i32 } %48, 0
  store ptr %49, ptr %5, align 8
  %50 = extractvalue { ptr, i32 } %48, 1
  store i32 %50, ptr %6, align 4
  call void @_ZN8QVariantD1Ev(ptr noundef align 8 dereferenceable_or_null(32) %4) #10
  call void @llvm.lifetime.end.p0(i64 32, ptr %4) #10
  br label %56

51:                                               ; preds = %39
  %52 = landingpad { ptr, i32 }
          cleanup
  %53 = extractvalue { ptr, i32 } %52, 0
  store ptr %53, ptr %5, align 8
  %54 = extractvalue { ptr, i32 } %52, 1
  store i32 %54, ptr %6, align 4
  call void @_ZN8QVariantD1Ev(ptr noundef align 8 dereferenceable_or_null(32) %7) #10
  call void @llvm.lifetime.end.p0(i64 32, ptr %7) #10
  br label %56

55:                                               ; preds = %44, %32
  call void @llvm.lifetime.end.p0(i64 8, ptr %3) #10
  br label %57

56:                                               ; preds = %51, %47
  call void @llvm.lifetime.end.p0(i64 8, ptr %3) #10
  br label %59

57:                                               ; preds = %55, %11
  call void @_ZN7QWidget4showEv(ptr noundef align 8 dereferenceable_or_null(40) %8)
  br label %58

58:                                               ; preds = %57, %10
  ret void

59:                                               ; preds = %56
  %60 = load ptr, ptr %5, align 8
  %61 = load i32, ptr %6, align 4
  %62 = insertvalue { ptr, i32 } poison, ptr %60, 0
  %63 = insertvalue { ptr, i32 } %62, i32 %61, 1
  resume { ptr, i32 } %63
}