; Function Attrs: mustprogress null_pointer_is_valid sspstrong uwtable
define void @_ZN14AccordionFrame12animatedShowEv(ptr noundef align 8 dereferenceable_or_null(56) %0) local_unnamed_addr #0 align 2 personality ptr @__gxx_personality_v0 {
  %2 = alloca %class.QVariant, align 8
  %3 = alloca %class.QVariant, align 8
  %4 = getelementptr inbounds nuw i8, ptr %0, i64 32
  %5 = load ptr, ptr %4, align 8
  %6 = getelementptr inbounds nuw i8, ptr %5, i64 8
  %7 = load i32, ptr %6, align 8
  %8 = and i32 %7, 32768
  %.not10 = icmp eq i32 %8, 0
  br i1 %.not10, label %10, label %9

9:                                                ; preds = %1
  tail call void @_ZN7QWidget4showEv(ptr noundef align 8 dereferenceable_or_null(40) %0)
  br label %52

10:                                               ; preds = %1
  %11 = tail call zeroext i1 @display_is_remote()
  br i1 %11, label %51, label %12

12:                                               ; preds = %10
  %13 = getelementptr inbounds nuw i8, ptr %0, i64 8
  %14 = load ptr, ptr %13, align 8
  %15 = getelementptr inbounds nuw i8, ptr %14, i64 16
  %16 = load ptr, ptr %15, align 8
  %.not = icmp eq ptr %16, null
  br i1 %.not, label %34, label %17

17:                                               ; preds = %12
  %18 = tail call noundef ptr @_ZNK7QWidget6layoutEv(ptr noundef nonnull align 8 dereferenceable_or_null(40) %16)
  %.not8 = icmp eq ptr %18, null
  br i1 %.not8, label %34, label %19

19:                                               ; preds = %17
  tail call void @_ZN7QWidget4showEv(ptr noundef align 8 dereferenceable_or_null(40) %0)
  %20 = tail call noundef ptr @_ZNK7QWidget6layoutEv(ptr noundef nonnull align 8 dereferenceable_or_null(40) %16)
  %21 = load ptr, ptr %20, align 8
  %22 = getelementptr inbounds nuw i8, ptr %21, i64 112
  %23 = load ptr, ptr %22, align 8
  tail call void %23(ptr noundef align 8 dereferenceable_or_null(28) %20)
  %24 = tail call noundef ptr @_ZNK7QWidget6layoutEv(ptr noundef nonnull align 8 dereferenceable_or_null(40) %16)
  %25 = tail call noundef zeroext i1 @_ZN7QLayout8activateEv(ptr noundef align 8 dereferenceable_or_null(28) %24)
  %26 = load ptr, ptr %4, align 8
  %27 = getelementptr inbounds nuw i8, ptr %26, i64 32
  %28 = load i32, ptr %27, align 4
  %29 = getelementptr inbounds nuw i8, ptr %26, i64 24
  %30 = load i32, ptr %29, align 4
  %31 = add i32 %28, 1
  %32 = sub i32 %31, %30
  %33 = getelementptr inbounds nuw i8, ptr %0, i64 40
  store i32 %32, ptr %33, align 8
  tail call void @_ZN7QWidget4hideEv(ptr noundef align 8 dereferenceable_or_null(40) %0)
  br label %34

34:                                               ; preds = %19, %17, %12
  %35 = getelementptr inbounds nuw i8, ptr %0, i64 40
  %36 = load i32, ptr %35, align 8
  %37 = icmp sgt i32 %36, 0
  br i1 %37, label %38, label %51

38:                                               ; preds = %34
  %39 = getelementptr inbounds nuw i8, ptr %0, i64 48
  %40 = load ptr, ptr %39, align 8
  call void @llvm.lifetime.start.p0(i64 32, ptr nonnull %2) #7
  call void @_ZN8QVariantC1Ei(ptr noundef nonnull align 8 dereferenceable_or_null(32) %2, i32 noundef 0)
  invoke void @_ZN17QVariantAnimation13setStartValueERK8QVariant(ptr noundef align 8 dereferenceable_or_null(16) %40, ptr noundef nonnull align 8 dereferenceable(32) %2)
          to label %41 unwind label %46

41:                                               ; preds = %38
  call void @_ZN8QVariantD1Ev(ptr noundef nonnull align 8 dereferenceable_or_null(32) %2) #7
  call void @llvm.lifetime.end.p0(i64 32, ptr nonnull %2) #7
  %42 = load ptr, ptr %39, align 8
  call void @llvm.lifetime.start.p0(i64 32, ptr nonnull %3) #7
  %43 = load i32, ptr %35, align 8
  call void @_ZN8QVariantC1Ei(ptr noundef nonnull align 8 dereferenceable_or_null(32) %3, i32 noundef %43)
  invoke void @_ZN17QVariantAnimation11setEndValueERK8QVariant(ptr noundef align 8 dereferenceable_or_null(16) %42, ptr noundef nonnull align 8 dereferenceable(32) %3)
          to label %44 unwind label %48

44:                                               ; preds = %41
  call void @_ZN8QVariantD1Ev(ptr noundef nonnull align 8 dereferenceable_or_null(32) %3) #7
  call void @llvm.lifetime.end.p0(i64 32, ptr nonnull %3) #7
  %45 = load ptr, ptr %39, align 8
  call void @_ZN18QAbstractAnimation5startENS_14DeletionPolicyE(ptr noundef align 8 dereferenceable_or_null(16) %45, i32 noundef 0)
  br label %51

46:                                               ; preds = %38
  %47 = landingpad { ptr, i32 }
          cleanup
  call void @_ZN8QVariantD1Ev(ptr noundef nonnull align 8 dereferenceable_or_null(32) %2) #7
  call void @llvm.lifetime.end.p0(i64 32, ptr nonnull %2) #7
  br label %50

48:                                               ; preds = %41
  %49 = landingpad { ptr, i32 }
          cleanup
  call void @_ZN8QVariantD1Ev(ptr noundef nonnull align 8 dereferenceable_or_null(32) %3) #7
  call void @llvm.lifetime.end.p0(i64 32, ptr nonnull %3) #7
  br label %50

50:                                               ; preds = %48, %46
  %.pn = phi { ptr, i32 } [ %49, %48 ], [ %47, %46 ]
  resume { ptr, i32 } %.pn

51:                                               ; preds = %34, %44, %10
  call void @_ZN7QWidget4showEv(ptr noundef align 8 dereferenceable_or_null(40) %0)
  br label %52

52:                                               ; preds = %51, %9
  ret void
}